target datalayout = "e-m:e-p270:32:32-p271:32:32-p272:64:64-i64:64-i128:128-f80:128-n8:16:32:64-S128"
target triple = "x86_64-pc-linux-gnu"

@decodetable = internal constant [80 x i8] c">\FF\FF\FF?456789:;<=\FF\FF\FF\FF\FF\FF\FF\00\01\02\03\04\05\06\07\08\09\0A\0B\0C\0D\0E\0F\10\11\12\13\14\15\16\17\18\19\FF\FF\FF\FF\FF\FF\1A\1B\1C\1D\1E\1F !\22#$%&'()*+,-./0123", align 16

; Function Attrs: nounwind uwtable
define dso_local i32 @curlx_base64_decode(ptr noundef %0, ptr noundef %1, ptr noundef %2) #0 {
  %4 = alloca i32, align 4
  %5 = alloca ptr, align 8
  %6 = alloca ptr, align 8
  %7 = alloca ptr, align 8
  %8 = alloca i64, align 8
  %9 = alloca i64, align 8
  %10 = alloca i64, align 8
  %11 = alloca i64, align 8
  %12 = alloca i64, align 8
  %13 = alloca i64, align 8
  %14 = alloca ptr, align 8
  %15 = alloca ptr, align 8
  %16 = alloca [256 x i8], align 16
  %17 = alloca i32, align 4
  %18 = alloca i8, align 1
  %19 = alloca i32, align 4
  %20 = alloca i32, align 4
  %21 = alloca i8, align 1
  %22 = alloca i32, align 4
  %23 = alloca i32, align 4
  %24 = alloca i64, align 8
  store ptr %0, ptr %5, align 8, !tbaa !4
  store ptr %1, ptr %6, align 8, !tbaa !9
  store ptr %2, ptr %7, align 8, !tbaa !11
  call void @llvm.lifetime.start.p0(i64 8, ptr %8) #7
  store i64 0, ptr %8, align 8, !tbaa !13
  call void @llvm.lifetime.start.p0(i64 8, ptr %9) #7
  store i64 0, ptr %9, align 8, !tbaa !13
  call void @llvm.lifetime.start.p0(i64 8, ptr %10) #7
  call void @llvm.lifetime.start.p0(i64 8, ptr %11) #7
  call void @llvm.lifetime.start.p0(i64 8, ptr %12) #7
  call void @llvm.lifetime.start.p0(i64 8, ptr %13) #7
  store i64 0, ptr %13, align 8, !tbaa !13
  call void @llvm.lifetime.start.p0(i64 8, ptr %14) #7
  call void @llvm.lifetime.start.p0(i64 8, ptr %15) #7
  call void @llvm.lifetime.start.p0(i64 256, ptr %16) #7
  %25 = load ptr, ptr %6, align 8, !tbaa !9
  store ptr null, ptr %25, align 8, !tbaa !4
  %26 = load ptr, ptr %7, align 8, !tbaa !11
  store i64 0, ptr %26, align 8, !tbaa !13
  %27 = load ptr, ptr %5, align 8, !tbaa !4
  %28 = call i64 @strlen(ptr noundef %27) #8
  store i64 %28, ptr %8, align 8, !tbaa !13
  %29 = load i64, ptr %8, align 8, !tbaa !13
  %30 = icmp ne i64 %29, 0
  br i1 %30, label %31, label %35

31:                                               ; preds = %3
  %32 = load i64, ptr %8, align 8, !tbaa !13
  %33 = urem i64 %32, 4
  %34 = icmp ne i64 %33, 0
  br i1 %34, label %35, label %36

35:                                               ; preds = %31, %3
  store i32 61, ptr %4, align 4
  store i32 1, ptr %17, align 4
  br label %207

36:                                               ; preds = %31
  br label %37

37:                                               ; preds = %53, %36
  %38 = load ptr, ptr %5, align 8, !tbaa !4
  %39 = load i64, ptr %8, align 8, !tbaa !13
  %40 = sub i64 %39, 1
  %41 = load i64, ptr %9, align 8, !tbaa !13
  %42 = sub i64 %40, %41
  %43 = getelementptr inbounds nuw i8, ptr %38, i64 %42
  %44 = load i8, ptr %43, align 1, !tbaa !15
  %45 = sext i8 %44 to i32
  %46 = icmp eq i32 %45, 61
  br i1 %46, label %47, label %54

47:                                               ; preds = %37
  %48 = load i64, ptr %9, align 8, !tbaa !13
  %49 = add i64 %48, 1
  store i64 %49, ptr %9, align 8, !tbaa !13
  %50 = load i64, ptr %9, align 8, !tbaa !13
  %51 = icmp ugt i64 %50, 2
  br i1 %51, label %52, label %53

52:                                               ; preds = %47
  store i32 61, ptr %4, align 4
  store i32 1, ptr %17, align 4
  br label %207

53:                                               ; preds = %47
  br label %37, !llvm.loop !16

54:                                               ; preds = %37
  %55 = load i64, ptr %8, align 8, !tbaa !13
  %56 = udiv i64 %55, 4
  store i64 %56, ptr %11, align 8, !tbaa !13
  %57 = load i64, ptr %11, align 8, !tbaa !13
  %58 = load i64, ptr %9, align 8, !tbaa !13
  %59 = icmp ne i64 %58, 0
  %60 = select i1 %59, i32 1, i32 0
  %61 = sext i32 %60 to i64
  %62 = sub i64 %57, %61
  store i64 %62, ptr %12, align 8, !tbaa !13
  %63 = load i64, ptr %11, align 8, !tbaa !13
  %64 = mul i64 %63, 3
  %65 = load i64, ptr %9, align 8, !tbaa !13
  %66 = sub i64 %64, %65
  store i64 %66, ptr %13, align 8, !tbaa !13
  %67 = load i64, ptr %13, align 8, !tbaa !13
  %68 = add i64 %67, 1
  %69 = call noalias ptr @malloc(i64 noundef %68) #9
  store ptr %69, ptr %15, align 8, !tbaa !4
  %70 = load ptr, ptr %15, align 8, !tbaa !4
  %71 = icmp ne ptr %70, null
  br i1 %71, label %73, label %72

72:                                               ; preds = %54
  store i32 27, ptr %4, align 4
  store i32 1, ptr %17, align 4
  br label %207

73:                                               ; preds = %54
  %74 = load ptr, ptr %15, align 8, !tbaa !4
  store ptr %74, ptr %14, align 8, !tbaa !4
  %75 = getelementptr inbounds [256 x i8], ptr %16, i64 0, i64 0
  call void @llvm.memset.p0.i64(ptr align 16 %75, i8 -1, i64 256, i1 false)
  %76 = getelementptr inbounds [256 x i8], ptr %16, i64 0, i64 43
  call void @llvm.memcpy.p0.p0.i64(ptr align 1 %76, ptr align 16 @decodetable, i64 80, i1 false)
  store i64 0, ptr %10, align 8, !tbaa !13
  br label %77

77:                                               ; preds = %128, %73
  %78 = load i64, ptr %10, align 8, !tbaa !13
  %79 = load i64, ptr %12, align 8, !tbaa !13
  %80 = icmp ult i64 %78, %79
  br i1 %80, label %81, label %131

81:                                               ; preds = %77
  call void @llvm.lifetime.start.p0(i64 1, ptr %18) #7
  call void @llvm.lifetime.start.p0(i64 4, ptr %19) #7
  store i32 0, ptr %19, align 4, !tbaa !18
  call void @llvm.lifetime.start.p0(i64 4, ptr %20) #7
  store i32 0, ptr %20, align 4, !tbaa !18
  br label %82

82:                                               ; preds = %102, %81
  %83 = load i32, ptr %20, align 4, !tbaa !18
  %84 = icmp slt i32 %83, 4
  br i1 %84, label %85, label %105

85:                                               ; preds = %82
  %86 = load ptr, ptr %5, align 8, !tbaa !4
  %87 = getelementptr inbounds nuw i8, ptr %86, i32 1
  store ptr %87, ptr %5, align 8, !tbaa !4
  %88 = load i8, ptr %86, align 1, !tbaa !15
  %89 = zext i8 %88 to i64
  %90 = getelementptr inbounds nuw [256 x i8], ptr %16, i64 0, i64 %89
  %91 = load i8, ptr %90, align 1, !tbaa !15
  store i8 %91, ptr %18, align 1, !tbaa !15
  %92 = load i8, ptr %18, align 1, !tbaa !15
  %93 = zext i8 %92 to i32
  %94 = icmp eq i32 %93, 255
  br i1 %94, label %95, label %96

95:                                               ; preds = %85
  store i32 10, ptr %17, align 4
  br label %125

96:                                               ; preds = %85
  %97 = load i32, ptr %19, align 4, !tbaa !18
  %98 = shl i32 %97, 6
  %99 = load i8, ptr %18, align 1, !tbaa !15
  %100 = zext i8 %99 to i32
  %101 = or i32 %98, %100
  store i32 %101, ptr %19, align 4, !tbaa !18
  br label %102

102:                                              ; preds = %96
  %103 = load i32, ptr %20, align 4, !tbaa !18
  %104 = add nsw i32 %103, 1
  store i32 %104, ptr %20, align 4, !tbaa !18
  br label %82, !llvm.loop !20

105:                                              ; preds = %82
  %106 = load i32, ptr %19, align 4, !tbaa !18
  %107 = and i32 %106, 255
  %108 = trunc i32 %107 to i8
  %109 = load ptr, ptr %14, align 8, !tbaa !4
  %110 = getelementptr inbounds i8, ptr %109, i64 2
  store i8 %108, ptr %110, align 1, !tbaa !15
  %111 = load i32, ptr %19, align 4, !tbaa !18
  %112 = lshr i32 %111, 8
  %113 = and i32 %112, 255
  %114 = trunc i32 %113 to i8
  %115 = load ptr, ptr %14, align 8, !tbaa !4
  %116 = getelementptr inbounds i8, ptr %115, i64 1
  store i8 %114, ptr %116, align 1, !tbaa !15
  %117 = load i32, ptr %19, align 4, !tbaa !18
  %118 = lshr i32 %117, 16
  %119 = and i32 %118, 255
  %120 = trunc i32 %119 to i8
  %121 = load ptr, ptr %14, align 8, !tbaa !4
  %122 = getelementptr inbounds i8, ptr %121, i64 0
  store i8 %120, ptr %122, align 1, !tbaa !15
  %123 = load ptr, ptr %14, align 8, !tbaa !4
  %124 = getelementptr inbounds i8, ptr %123, i64 3
  store ptr %124, ptr %14, align 8, !tbaa !4
  store i32 0, ptr %17, align 4
  br label %125

125:                                              ; preds = %95, %105
  call void @llvm.lifetime.end.p0(i64 4, ptr %20) #7
  call void @llvm.lifetime.end.p0(i64 4, ptr %19) #7
  call void @llvm.lifetime.end.p0(i64 1, ptr %18) #7
  %126 = load i32, ptr %17, align 4
  switch i32 %126, label %207 [
    i32 0, label %127
    i32 10, label %205
  ]

127:                                              ; preds = %125
  br label %128

128:                                              ; preds = %127
  %129 = load i64, ptr %10, align 8, !tbaa !13
  %130 = add i64 %129, 1
  store i64 %130, ptr %10, align 8, !tbaa !13
  br label %77, !llvm.loop !21

131:                                              ; preds = %77
  %132 = load i64, ptr %9, align 8, !tbaa !13
  %133 = icmp ne i64 %132, 0
  br i1 %133, label %134, label %199

134:                                              ; preds = %131
  call void @llvm.lifetime.start.p0(i64 1, ptr %21) #7
  call void @llvm.lifetime.start.p0(i64 4, ptr %22) #7
  store i32 0, ptr %22, align 4, !tbaa !18
  call void @llvm.lifetime.start.p0(i64 4, ptr %23) #7
  call void @llvm.lifetime.start.p0(i64 8, ptr %24) #7
  store i64 0, ptr %24, align 8, !tbaa !13
  store i32 0, ptr %23, align 4, !tbaa !18
  br label %135

135:                                              ; preds = %172, %134
  %136 = load i32, ptr %23, align 4, !tbaa !18
  %137 = icmp slt i32 %136, 4
  br i1 %137, label %138, label %175

138:                                              ; preds = %135
  %139 = load ptr, ptr %5, align 8, !tbaa !4
  %140 = load i8, ptr %139, align 1, !tbaa !15
  %141 = sext i8 %140 to i32
  %142 = icmp eq i32 %141, 61
  br i1 %142, label %143, label %154

143:                                              ; preds = %138
  %144 = load i32, ptr %22, align 4, !tbaa !18
  %145 = shl i32 %144, 6
  store i32 %145, ptr %22, align 4, !tbaa !18
  %146 = load ptr, ptr %5, align 8, !tbaa !4
  %147 = getelementptr inbounds nuw i8, ptr %146, i32 1
  store ptr %147, ptr %5, align 8, !tbaa !4
  %148 = load i64, ptr %24, align 8, !tbaa !13
  %149 = add i64 %148, 1
  store i64 %149, ptr %24, align 8, !tbaa !13
  %150 = load i64, ptr %9, align 8, !tbaa !13
  %151 = icmp ugt i64 %149, %150
  br i1 %151, label %152, label %153

152:                                              ; preds = %143
  store i32 10, ptr %17, align 4
  br label %196

153:                                              ; preds = %143
  br label %171

154:                                              ; preds = %138
  %155 = load ptr, ptr %5, align 8, !tbaa !4
  %156 = getelementptr inbounds nuw i8, ptr %155, i32 1
  store ptr %156, ptr %5, align 8, !tbaa !4
  %157 = load i8, ptr %155, align 1, !tbaa !15
  %158 = zext i8 %157 to i64
  %159 = getelementptr inbounds nuw [256 x i8], ptr %16, i64 0, i64 %158
  %160 = load i8, ptr %159, align 1, !tbaa !15
  store i8 %160, ptr %21, align 1, !tbaa !15
  %161 = load i8, ptr %21, align 1, !tbaa !15
  %162 = zext i8 %161 to i32
  %163 = icmp eq i32 %162, 255
  br i1 %163, label %164, label %165

164:                                              ; preds = %154
  store i32 10, ptr %17, align 4
  br label %196

165:                                              ; preds = %154
  %166 = load i32, ptr %22, align 4, !tbaa !18
  %167 = shl i32 %166, 6
  %168 = load i8, ptr %21, align 1, !tbaa !15
  %169 = zext i8 %168 to i32
  %170 = or i32 %167, %169
  store i32 %170, ptr %22, align 4, !tbaa !18
  br label %171

171:                                              ; preds = %165, %153
  br label %172

172:                                              ; preds = %171
  %173 = load i32, ptr %23, align 4, !tbaa !18
  %174 = add nsw i32 %173, 1
  store i32 %174, ptr %23, align 4, !tbaa !18
  br label %135, !llvm.loop !22

175:                                              ; preds = %135
  %176 = load i64, ptr %9, align 8, !tbaa !13
  %177 = icmp eq i64 %176, 1
  br i1 %177, label %178, label %185

178:                                              ; preds = %175
  %179 = load i32, ptr %22, align 4, !tbaa !18
  %180 = lshr i32 %179, 8
  %181 = and i32 %180, 255
  %182 = trunc i32 %181 to i8
  %183 = load ptr, ptr %14, align 8, !tbaa !4
  %184 = getelementptr inbounds i8, ptr %183, i64 1
  store i8 %182, ptr %184, align 1, !tbaa !15
  br label %185

185:                                              ; preds = %178, %175
  %186 = load i32, ptr %22, align 4, !tbaa !18
  %187 = lshr i32 %186, 16
  %188 = and i32 %187, 255
  %189 = trunc i32 %188 to i8
  %190 = load ptr, ptr %14, align 8, !tbaa !4
  %191 = getelementptr inbounds i8, ptr %190, i64 0
  store i8 %189, ptr %191, align 1, !tbaa !15
  %192 = load i64, ptr %9, align 8, !tbaa !13
  %193 = sub i64 3, %192
  %194 = load ptr, ptr %14, align 8, !tbaa !4
  %195 = getelementptr inbounds nuw i8, ptr %194, i64 %193
  store ptr %195, ptr %14, align 8, !tbaa !4
  store i32 0, ptr %17, align 4
  br label %196

196:                                              ; preds = %164, %152, %185
  call void @llvm.lifetime.end.p0(i64 8, ptr %24) #7
  call void @llvm.lifetime.end.p0(i64 4, ptr %23) #7
  call void @llvm.lifetime.end.p0(i64 4, ptr %22) #7
  call void @llvm.lifetime.end.p0(i64 1, ptr %21) #7
  %197 = load i32, ptr %17, align 4
  switch i32 %197, label %207 [
    i32 0, label %198
    i32 10, label %205
  ]

198:                                              ; preds = %196
  br label %199

199:                                              ; preds = %198, %131
  %200 = load ptr, ptr %14, align 8, !tbaa !4
  store i8 0, ptr %200, align 1, !tbaa !15
  %201 = load ptr, ptr %15, align 8, !tbaa !4
  %202 = load ptr, ptr %6, align 8, !tbaa !9
  store ptr %201, ptr %202, align 8, !tbaa !4
  %203 = load i64, ptr %13, align 8, !tbaa !13
  %204 = load ptr, ptr %7, align 8, !tbaa !11
  store i64 %203, ptr %204, align 8, !tbaa !13
  store i32 0, ptr %4, align 4
  store i32 1, ptr %17, align 4
  br label %207

205:                                              ; preds = %196, %125
  %206 = load ptr, ptr %15, align 8, !tbaa !4
  call void @free(ptr noundef %206) #7
  store i32 61, ptr %4, align 4
  store i32 1, ptr %17, align 4
  br label %207

207:                                              ; preds = %205, %199, %196, %125, %72, %52, %35
  call void @llvm.lifetime.end.p0(i64 256, ptr %16) #7
  call void @llvm.lifetime.end.p0(i64 8, ptr %15) #7
  call void @llvm.lifetime.end.p0(i64 8, ptr %14) #7
  call void @llvm.lifetime.end.p0(i64 8, ptr %13) #7
  call void @llvm.lifetime.end.p0(i64 8, ptr %12) #7
  call void @llvm.lifetime.end.p0(i64 8, ptr %11) #7
  call void @llvm.lifetime.end.p0(i64 8, ptr %10) #7
  call void @llvm.lifetime.end.p0(i64 8, ptr %9) #7
  call void @llvm.lifetime.end.p0(i64 8, ptr %8) #7
  %208 = load i32, ptr %4, align 4
  ret i32 %208
}